target datalayout = "e-m:e-p270:32:32-p271:32:32-p272:64:64-i64:64-i128:128-f80:128-n8:16:32:64-S128"
target triple = "x86_64-pc-linux-gnu"

%struct.ssh_bignum = type { ptr, i32 }
%struct.ssh_flow_data = type { i32, ptr, ptr, [2 x %struct.ssh_peer_data], ptr, i32, ptr, ptr, ptr, ptr, ptr, ptr, ptr, ptr, ptr, ptr, ptr, ptr, ptr, ptr, i32, i32, [6 x %struct.ssh_bignum] }
%struct.ssh_peer_data = type { i32, i32, i32, i32, i32, i32, ptr, [2 x ptr], ptr, i32, [2 x ptr], ptr, [2 x ptr], ptr, i32, i32, i32, ptr, ptr, i32, i32, i32, i32, i32, i32, i32, i32, i32, i32, i32, ptr, [12 x i8], [48 x i8], i32, ptr, ptr, ptr }

@hf_ssh_hostkey_length = internal global i32 0, align 4
@hf_ssh_hostkey_type_length = internal global i32 0, align 4
@hf_ssh_hostkey_type = internal global i32 0, align 4
@hf_ssh_hostkey_data = internal global i32 0, align 4
@hf_ssh_hostkey_rsa_n = internal global i32 0, align 4
@hf_ssh_hostkey_rsa_e = internal global i32 0, align 4
@hf_ssh_hostkey_dsa_p = internal global i32 0, align 4
@hf_ssh_hostkey_dsa_q = internal global i32 0, align 4
@hf_ssh_hostkey_dsa_g = internal global i32 0, align 4
@hf_ssh_hostkey_dsa_y = internal global i32 0, align 4
@hf_ssh_hostkey_ecdsa_curve_id = internal global i32 0, align 4
@hf_ssh_hostkey_ecdsa_curve_id_length = internal global i32 0, align 4
@hf_ssh_hostkey_ecdsa_q = internal global i32 0, align 4
@hf_ssh_hostkey_ecdsa_q_length = internal global i32 0, align 4
@hf_ssh_hostkey_eddsa_key = internal global i32 0, align 4
@hf_ssh_hostkey_eddsa_key_length = internal global i32 0, align 4
@hf_ssh_mpint_length = internal global i32 0, align 4
@.str.419 = private unnamed_addr constant [14 x i8] c"%s (type: %s)\00", align 1
@.str.420 = private unnamed_addr constant [8 x i8] c"ssh-rsa\00", align 1
@.str.421 = private unnamed_addr constant [8 x i8] c"ssh-dss\00", align 1
@.str.422 = private unnamed_addr constant [12 x i8] c"ecdsa-sha2-\00", align 1
@.str.423 = private unnamed_addr constant [7 x i8] c"ssh-ed\00", align 1

; Function Attrs: nounwind uwtable
define internal ptr @ssh_string(ptr noundef %0, i32 noundef %1) #0 {
  %3 = alloca ptr, align 8
  %4 = alloca i32, align 4
  %5 = alloca ptr, align 8
  store ptr %0, ptr %3, align 8
  store i32 %1, ptr %4, align 4
  %6 = call ptr @wmem_packet_scope()
  %7 = load i32, ptr %4, align 4
  %8 = add i32 %7, 4
  %9 = zext i32 %8 to i64
  %10 = call noalias ptr @wmem_alloc(ptr noundef %6, i64 noundef %9)
  store ptr %10, ptr %5, align 8
  %11 = load i32, ptr %4, align 4
  %12 = lshr i32 %11, 24
  %13 = and i32 %12, 255
  %14 = trunc i32 %13 to i8
  %15 = load ptr, ptr %5, align 8
  %16 = getelementptr i8, ptr %15, i64 0
  store i8 %14, ptr %16, align 1
  %17 = load i32, ptr %4, align 4
  %18 = lshr i32 %17, 16
  %19 = and i32 %18, 255
  %20 = trunc i32 %19 to i8
  %21 = load ptr, ptr %5, align 8
  %22 = getelementptr i8, ptr %21, i64 1
  store i8 %20, ptr %22, align 1
  %23 = load i32, ptr %4, align 4
  %24 = lshr i32 %23, 8
  %25 = and i32 %24, 255
  %26 = trunc i32 %25 to i8
  %27 = load ptr, ptr %5, align 8
  %28 = getelementptr i8, ptr %27, i64 2
  store i8 %26, ptr %28, align 1
  %29 = load i32, ptr %4, align 4
  %30 = and i32 %29, 255
  %31 = trunc i32 %30 to i8
  %32 = load ptr, ptr %5, align 8
  %33 = getelementptr i8, ptr %32, i64 3
  store i8 %31, ptr %33, align 1
  %34 = load ptr, ptr %5, align 8
  %35 = getelementptr i8, ptr %34, i64 4
  %36 = load ptr, ptr %3, align 8
  %37 = load i32, ptr %4, align 4
  %38 = zext i32 %37 to i64
  call void @llvm.memcpy.p0.p0.i64(ptr align 1 %35, ptr align 1 %36, i64 %38, i1 false)
  %39 = load ptr, ptr %5, align 8
  ret ptr %39
}

; Function Attrs: nounwind uwtable
define internal i32 @ssh_tree_add_string(ptr noundef %0, i32 noundef %1, ptr noundef %2, i32 noundef %3, i32 noundef %4) #0 {
  %6 = alloca ptr, align 8
  %7 = alloca i32, align 4
  %8 = alloca ptr, align 8
  %9 = alloca i32, align 4
  %10 = alloca i32, align 4
  %11 = alloca i32, align 4
  store ptr %0, ptr %6, align 8
  store i32 %1, ptr %7, align 4
  store ptr %2, ptr %8, align 8
  store i32 %3, ptr %9, align 4
  store i32 %4, ptr %10, align 4
  %12 = load ptr, ptr %6, align 8
  %13 = load i32, ptr %7, align 4
  %14 = call i32 @tvb_get_ntohl(ptr noundef %12, i32 noundef %13)
  store i32 %14, ptr %11, align 4
  %15 = load ptr, ptr %8, align 8
  %16 = load i32, ptr %10, align 4
  %17 = load ptr, ptr %6, align 8
  %18 = load i32, ptr %7, align 4
  %19 = load i32, ptr %11, align 4
  %20 = call ptr @proto_tree_add_uint(ptr noundef %15, i32 noundef %16, ptr noundef %17, i32 noundef %18, i32 noundef 4, i32 noundef %19)
  %21 = load i32, ptr %7, align 4
  %22 = add i32 %21, 4
  store i32 %22, ptr %7, align 4
  %23 = load ptr, ptr %8, align 8
  %24 = load i32, ptr %9, align 4
  %25 = load ptr, ptr %6, align 8
  %26 = load i32, ptr %7, align 4
  %27 = load i32, ptr %11, align 4
  %28 = call ptr @proto_tree_add_item(ptr noundef %23, i32 noundef %24, ptr noundef %25, i32 noundef %26, i32 noundef %27, i32 noundef 0)
  %29 = load i32, ptr %11, align 4
  %30 = add i32 4, %29
  ret i32 %30
}

; Function Attrs: nounwind uwtable
define internal i32 @ssh_tree_add_mpint(ptr noundef %0, i32 noundef %1, ptr noundef %2, i32 noundef %3) #0 {
  %5 = alloca ptr, align 8
  %6 = alloca i32, align 4
  %7 = alloca ptr, align 8
  %8 = alloca i32, align 4
  %9 = alloca i32, align 4
  store ptr %0, ptr %5, align 8
  store i32 %1, ptr %6, align 4
  store ptr %2, ptr %7, align 8
  store i32 %3, ptr %8, align 4
  %10 = load ptr, ptr %5, align 8
  %11 = load i32, ptr %6, align 4
  %12 = call i32 @tvb_get_ntohl(ptr noundef %10, i32 noundef %11)
  store i32 %12, ptr %9, align 4
  %13 = load ptr, ptr %7, align 8
  %14 = load i32, ptr @hf_ssh_mpint_length, align 4
  %15 = load ptr, ptr %5, align 8
  %16 = load i32, ptr %6, align 4
  %17 = load i32, ptr %9, align 4
  %18 = call ptr @proto_tree_add_uint(ptr noundef %13, i32 noundef %14, ptr noundef %15, i32 noundef %16, i32 noundef 4, i32 noundef %17)
  %19 = load i32, ptr %6, align 4
  %20 = add i32 %19, 4
  store i32 %20, ptr %6, align 4
  %21 = load ptr, ptr %7, align 8
  %22 = load i32, ptr %8, align 4
  %23 = load ptr, ptr %5, align 8
  %24 = load i32, ptr %6, align 4
  %25 = load i32, ptr %9, align 4
  %26 = call ptr @proto_tree_add_item(ptr noundef %21, i32 noundef %22, ptr noundef %23, i32 noundef %24, i32 noundef %25, i32 noundef 0)
  %27 = load i32, ptr %9, align 4
  %28 = add i32 4, %27
  ret i32 %28
}

; Function Attrs: nounwind uwtable
define internal void @ssh_hash_buffer_put_string(ptr noundef %0, ptr noundef %1, i32 noundef %2) #0 {
  %4 = alloca ptr, align 8
  %5 = alloca ptr, align 8
  %6 = alloca i32, align 4
  %7 = alloca ptr, align 8
  store ptr %0, ptr %4, align 8
  store ptr %1, ptr %5, align 8
  store i32 %2, ptr %6, align 4
  %8 = load ptr, ptr %4, align 8
  %9 = icmp ne ptr %8, null
  br i1 %9, label %11, label %10

10:                                               ; preds = %3
  br label %19

11:                                               ; preds = %3
  %12 = load ptr, ptr %5, align 8
  %13 = load i32, ptr %6, align 4
  %14 = call ptr @ssh_string(ptr noundef %12, i32 noundef %13)
  store ptr %14, ptr %7, align 8
  %15 = load ptr, ptr %4, align 8
  %16 = load ptr, ptr %7, align 8
  %17 = load i32, ptr %6, align 4
  %18 = add i32 %17, 4
  call void @wmem_array_append(ptr noundef %15, ptr noundef %16, i32 noundef %18)
  br label %19

19:                                               ; preds = %11, %10
  ret void
}

; Function Attrs: nounwind uwtable
define internal i32 @ssh_tree_add_hostkey(ptr noundef %0, i32 noundef %1, ptr noundef %2, ptr noundef %3, i32 noundef %4, ptr noundef %5) #0 {
  %7 = alloca ptr, align 8
  %8 = alloca i32, align 4
  %9 = alloca ptr, align 8
  %10 = alloca ptr, align 8
  %11 = alloca i32, align 4
  %12 = alloca ptr, align 8
  %13 = alloca ptr, align 8
  %14 = alloca i32, align 4
  %15 = alloca i32, align 4
  %16 = alloca i32, align 4
  %17 = alloca i32, align 4
  %18 = alloca ptr, align 8
  %19 = alloca ptr, align 8
  %20 = alloca ptr, align 8
  store ptr %0, ptr %7, align 8
  store i32 %1, ptr %8, align 4
  store ptr %2, ptr %9, align 8
  store ptr %3, ptr %10, align 8
  store i32 %4, ptr %11, align 4
  store ptr %5, ptr %12, align 8
  store ptr null, ptr %13, align 8
  %21 = load i32, ptr %8, align 4
  store i32 %21, ptr %14, align 4
  %22 = load ptr, ptr %7, align 8
  %23 = load i32, ptr %8, align 4
  %24 = call i32 @tvb_get_ntohl(ptr noundef %22, i32 noundef %23)
  store i32 %24, ptr %16, align 4
  %25 = load i32, ptr %8, align 4
  %26 = add i32 %25, 4
  store i32 %26, ptr %8, align 4
  %27 = load ptr, ptr %7, align 8
  %28 = load i32, ptr %8, align 4
  %29 = call i32 @tvb_get_ntohl(ptr noundef %27, i32 noundef %28)
  store i32 %29, ptr %17, align 4
  %30 = load i32, ptr %8, align 4
  %31 = add i32 %30, 4
  store i32 %31, ptr %8, align 4
  %32 = call ptr @wmem_packet_scope()
  %33 = load ptr, ptr %7, align 8
  %34 = load i32, ptr %8, align 4
  %35 = load i32, ptr %17, align 4
  %36 = call ptr @tvb_get_string_enc(ptr noundef %32, ptr noundef %33, i32 noundef %34, i32 noundef %35, i32 noundef 0)
  store ptr %36, ptr %18, align 8
  %37 = call ptr @wmem_packet_scope()
  %38 = load ptr, ptr %10, align 8
  %39 = load ptr, ptr %18, align 8
  %40 = call noalias ptr (ptr, ptr, ...) @wmem_strdup_printf(ptr noundef %37, ptr noundef @.str.419, ptr noundef %38, ptr noundef %39)
  store ptr %40, ptr %19, align 8
  %41 = load ptr, ptr %9, align 8
  %42 = load ptr, ptr %7, align 8
  %43 = load i32, ptr %14, align 4
  %44 = load i32, ptr %16, align 4
  %45 = add i32 %44, 4
  %46 = load i32, ptr %11, align 4
  %47 = load ptr, ptr %19, align 8
  %48 = call ptr @proto_tree_add_subtree(ptr noundef %41, ptr noundef %42, i32 noundef %43, i32 noundef %45, i32 noundef %46, ptr noundef null, ptr noundef %47)
  store ptr %48, ptr %13, align 8
  %49 = load ptr, ptr %13, align 8
  %50 = load i32, ptr @hf_ssh_hostkey_length, align 4
  %51 = load ptr, ptr %7, align 8
  %52 = load i32, ptr %14, align 4
  %53 = load i32, ptr %16, align 4
  %54 = call ptr @proto_tree_add_uint(ptr noundef %49, i32 noundef %50, ptr noundef %51, i32 noundef %52, i32 noundef 4, i32 noundef %53)
  %55 = call ptr @wmem_packet_scope()
  %56 = load ptr, ptr %7, align 8
  %57 = load i32, ptr %14, align 4
  %58 = add i32 %57, 4
  %59 = load i32, ptr %16, align 4
  %60 = zext i32 %59 to i64
  %61 = call ptr @tvb_memdup(ptr noundef %55, ptr noundef %56, i32 noundef %58, i64 noundef %60)
  store ptr %61, ptr %20, align 8
  %62 = load ptr, ptr %12, align 8
  %63 = getelementptr inbounds %struct.ssh_flow_data, ptr %62, i32 0, i32 15
  %64 = load ptr, ptr %63, align 8
  %65 = load ptr, ptr %20, align 8
  %66 = load i32, ptr %16, align 4
  call void @ssh_hash_buffer_put_string(ptr noundef %64, ptr noundef %65, i32 noundef %66)
  %67 = load i32, ptr %14, align 4
  %68 = add i32 %67, 4
  store i32 %68, ptr %14, align 4
  %69 = load ptr, ptr %13, align 8
  %70 = load i32, ptr @hf_ssh_hostkey_type_length, align 4
  %71 = load ptr, ptr %7, align 8
  %72 = load i32, ptr %14, align 4
  %73 = load i32, ptr %17, align 4
  %74 = call ptr @proto_tree_add_uint(ptr noundef %69, i32 noundef %70, ptr noundef %71, i32 noundef %72, i32 noundef 4, i32 noundef %73)
  %75 = load ptr, ptr %13, align 8
  %76 = load i32, ptr @hf_ssh_hostkey_type, align 4
  %77 = load ptr, ptr %7, align 8
  %78 = load i32, ptr %8, align 4
  %79 = load i32, ptr %17, align 4
  %80 = load ptr, ptr %18, align 8
  %81 = call ptr @proto_tree_add_string(ptr noundef %75, i32 noundef %76, ptr noundef %77, i32 noundef %78, i32 noundef %79, ptr noundef %80)
  %82 = load i32, ptr %17, align 4
  %83 = load i32, ptr %8, align 4
  %84 = add i32 %83, %82
  store i32 %84, ptr %8, align 4
  %85 = load ptr, ptr %18, align 8
  %86 = call i32 @strcmp(ptr noundef %85, ptr noundef @.str.420) #11
  %87 = icmp eq i32 0, %86
  br i1 %87, label %88, label %101

88:                                               ; preds = %6
  %89 = load ptr, ptr %7, align 8
  %90 = load i32, ptr %8, align 4
  %91 = load ptr, ptr %13, align 8
  %92 = load i32, ptr @hf_ssh_hostkey_rsa_e, align 4
  %93 = call i32 @ssh_tree_add_mpint(ptr noundef %89, i32 noundef %90, ptr noundef %91, i32 noundef %92)
  %94 = load i32, ptr %8, align 4
  %95 = add i32 %94, %93
  store i32 %95, ptr %8, align 4
  %96 = load ptr, ptr %7, align 8
  %97 = load i32, ptr %8, align 4
  %98 = load ptr, ptr %13, align 8
  %99 = load i32, ptr @hf_ssh_hostkey_rsa_n, align 4
  %100 = call i32 @ssh_tree_add_mpint(ptr noundef %96, i32 noundef %97, ptr noundef %98, i32 noundef %99)
  br label %176

101:                                              ; preds = %6
  %102 = load ptr, ptr %18, align 8
  %103 = call i32 @strcmp(ptr noundef %102, ptr noundef @.str.421) #11
  %104 = icmp eq i32 0, %103
  br i1 %104, label %105, label %132

105:                                              ; preds = %101
  %106 = load ptr, ptr %7, align 8
  %107 = load i32, ptr %8, align 4
  %108 = load ptr, ptr %13, align 8
  %109 = load i32, ptr @hf_ssh_hostkey_dsa_p, align 4
  %110 = call i32 @ssh_tree_add_mpint(ptr noundef %106, i32 noundef %107, ptr noundef %108, i32 noundef %109)
  %111 = load i32, ptr %8, align 4
  %112 = add i32 %111, %110
  store i32 %112, ptr %8, align 4
  %113 = load ptr, ptr %7, align 8
  %114 = load i32, ptr %8, align 4
  %115 = load ptr, ptr %13, align 8
  %116 = load i32, ptr @hf_ssh_hostkey_dsa_q, align 4
  %117 = call i32 @ssh_tree_add_mpint(ptr noundef %113, i32 noundef %114, ptr noundef %115, i32 noundef %116)
  %118 = load i32, ptr %8, align 4
  %119 = add i32 %118, %117
  store i32 %119, ptr %8, align 4
  %120 = load ptr, ptr %7, align 8
  %121 = load i32, ptr %8, align 4
  %122 = load ptr, ptr %13, align 8
  %123 = load i32, ptr @hf_ssh_hostkey_dsa_g, align 4
  %124 = call i32 @ssh_tree_add_mpint(ptr noundef %120, i32 noundef %121, ptr noundef %122, i32 noundef %123)
  %125 = load i32, ptr %8, align 4
  %126 = add i32 %125, %124
  store i32 %126, ptr %8, align 4
  %127 = load ptr, ptr %7, align 8
  %128 = load i32, ptr %8, align 4
  %129 = load ptr, ptr %13, align 8
  %130 = load i32, ptr @hf_ssh_hostkey_dsa_y, align 4
  %131 = call i32 @ssh_tree_add_mpint(ptr noundef %127, i32 noundef %128, ptr noundef %129, i32 noundef %130)
  br label %175

132:                                              ; preds = %101
  %133 = load ptr, ptr %18, align 8
  %134 = call i32 @g_str_has_prefix(ptr noundef %133, ptr noundef @.str.422)
  %135 = icmp ne i32 %134, 0
  br i1 %135, label %136, label %151

136:                                              ; preds = %132
  %137 = load ptr, ptr %7, align 8
  %138 = load i32, ptr %8, align 4
  %139 = load ptr, ptr %13, align 8
  %140 = load i32, ptr @hf_ssh_hostkey_ecdsa_curve_id, align 4
  %141 = load i32, ptr @hf_ssh_hostkey_ecdsa_curve_id_length, align 4
  %142 = call i32 @ssh_tree_add_string(ptr noundef %137, i32 noundef %138, ptr noundef %139, i32 noundef %140, i32 noundef %141)
  %143 = load i32, ptr %8, align 4
  %144 = add i32 %143, %142
  store i32 %144, ptr %8, align 4
  %145 = load ptr, ptr %7, align 8
  %146 = load i32, ptr %8, align 4
  %147 = load ptr, ptr %13, align 8
  %148 = load i32, ptr @hf_ssh_hostkey_ecdsa_q, align 4
  %149 = load i32, ptr @hf_ssh_hostkey_ecdsa_q_length, align 4
  %150 = call i32 @ssh_tree_add_string(ptr noundef %145, i32 noundef %146, ptr noundef %147, i32 noundef %148, i32 noundef %149)
  br label %174

151:                                              ; preds = %132
  %152 = load ptr, ptr %18, align 8
  %153 = call i32 @g_str_has_prefix(ptr noundef %152, ptr noundef @.str.423)
  %154 = icmp ne i32 %153, 0
  br i1 %154, label %155, label %162

155:                                              ; preds = %151
  %156 = load ptr, ptr %7, align 8
  %157 = load i32, ptr %8, align 4
  %158 = load ptr, ptr %13, align 8
  %159 = load i32, ptr @hf_ssh_hostkey_eddsa_key, align 4
  %160 = load i32, ptr @hf_ssh_hostkey_eddsa_key_length, align 4
  %161 = call i32 @ssh_tree_add_string(ptr noundef %156, i32 noundef %157, ptr noundef %158, i32 noundef %159, i32 noundef %160)
  br label %173

162:                                              ; preds = %151
  %163 = load i32, ptr %16, align 4
  %164 = load i32, ptr %17, align 4
  %165 = add i32 %164, 4
  %166 = sub i32 %163, %165
  store i32 %166, ptr %15, align 4
  %167 = load ptr, ptr %13, align 8
  %168 = load i32, ptr @hf_ssh_hostkey_data, align 4
  %169 = load ptr, ptr %7, align 8
  %170 = load i32, ptr %8, align 4
  %171 = load i32, ptr %15, align 4
  %172 = call ptr @proto_tree_add_item(ptr noundef %167, i32 noundef %168, ptr noundef %169, i32 noundef %170, i32 noundef %171, i32 noundef 0)
  br label %173

173:                                              ; preds = %162, %155
  br label %174

174:                                              ; preds = %173, %136
  br label %175

175:                                              ; preds = %174, %105
  br label %176

176:                                              ; preds = %175, %88
  %177 = load i32, ptr %16, align 4
  %178 = add i32 4, %177
  ret i32 %178
}