; Function Attrs: nounwind uwtable
define internal fastcc noundef i32 @ssh_tree_add_hostkey(ptr noundef %0, i32 noundef %1, ptr noundef %2, i32 noundef %3, ptr noundef readonly captures(none) %4) unnamed_addr #0 {
  %6 = tail call i32 @tvb_get_ntohl(ptr noundef %0, i32 noundef %1) #21
  %7 = add i32 %1, 4
  %8 = tail call i32 @tvb_get_ntohl(ptr noundef %0, i32 noundef %7) #21
  %9 = add i32 %1, 8
  %10 = tail call ptr @wmem_packet_scope() #21
  %11 = tail call ptr @tvb_get_string_enc(ptr noundef %10, ptr noundef %0, i32 noundef %9, i32 noundef %8, i32 noundef 0) #21
  %12 = tail call ptr @wmem_packet_scope() #21
  %13 = tail call noalias ptr (ptr, ptr, ...) @wmem_strdup_printf(ptr noundef %12, ptr noundef nonnull @.str.419, ptr noundef nonnull @.str.415, ptr noundef %11) #21
  %14 = add i32 %6, 4
  %15 = tail call ptr @proto_tree_add_subtree(ptr noundef %2, ptr noundef %0, i32 noundef %1, i32 noundef %14, i32 noundef %3, ptr noundef null, ptr noundef %13) #21
  %16 = load i32, ptr @hf_ssh_hostkey_length, align 4
  %17 = tail call ptr @proto_tree_add_uint(ptr noundef %15, i32 noundef %16, ptr noundef %0, i32 noundef %1, i32 noundef 4, i32 noundef %6) #21
  %18 = tail call ptr @wmem_packet_scope() #21
  %19 = zext i32 %6 to i64
  %20 = tail call ptr @tvb_memdup(ptr noundef %18, ptr noundef %0, i32 noundef %7, i64 noundef %19) #21
  %21 = getelementptr inbounds nuw i8, ptr %4, i64 688
  %22 = load ptr, ptr %21, align 8
  %.not.i = icmp eq ptr %22, null
  br i1 %.not.i, label %ssh_hash_buffer_put_string.exit, label %23

23:                                               ; preds = %5
  %24 = tail call ptr @wmem_packet_scope() #21
  %25 = zext i32 %14 to i64
  %26 = tail call noalias ptr @wmem_alloc(ptr noundef %24, i64 noundef %25) #21
  %27 = lshr i32 %6, 24
  %28 = trunc nuw i32 %27 to i8
  store i8 %28, ptr %26, align 1
  %29 = lshr i32 %6, 16
  %30 = trunc i32 %29 to i8
  %31 = getelementptr i8, ptr %26, i64 1
  store i8 %30, ptr %31, align 1
  %32 = lshr i32 %6, 8
  %33 = trunc i32 %32 to i8
  %34 = getelementptr i8, ptr %26, i64 2
  store i8 %33, ptr %34, align 1
  %35 = trunc i32 %6 to i8
  %36 = getelementptr i8, ptr %26, i64 3
  store i8 %35, ptr %36, align 1
  %37 = getelementptr i8, ptr %26, i64 4
  tail call void @llvm.memcpy.p0.p0.i64(ptr align 1 %37, ptr readonly align 1 %20, i64 %19, i1 false)
  tail call void @wmem_array_append(ptr noundef nonnull %22, ptr noundef nonnull %26, i32 noundef %14) #21
  br label %ssh_hash_buffer_put_string.exit

ssh_hash_buffer_put_string.exit:                  ; preds = %5, %23
  %38 = load i32, ptr @hf_ssh_hostkey_type_length, align 4
  %39 = tail call ptr @proto_tree_add_uint(ptr noundef %15, i32 noundef %38, ptr noundef %0, i32 noundef %7, i32 noundef 4, i32 noundef %8) #21
  %40 = load i32, ptr @hf_ssh_hostkey_type, align 4
  %41 = tail call ptr @proto_tree_add_string(ptr noundef %15, i32 noundef %40, ptr noundef %0, i32 noundef %9, i32 noundef %8, ptr noundef %11) #21
  %42 = add i32 %8, %9
  %43 = tail call i32 @strcmp(ptr noundef nonnull dereferenceable(1) %11, ptr noundef nonnull dereferenceable(8) @.str.420) #22
  %44 = icmp eq i32 %43, 0
  br i1 %44, label %45, label %59

45:                                               ; preds = %ssh_hash_buffer_put_string.exit
  %46 = load i32, ptr @hf_ssh_hostkey_rsa_e, align 4
  %47 = tail call i32 @tvb_get_ntohl(ptr noundef %0, i32 noundef %42) #21
  %48 = load i32, ptr @hf_ssh_mpint_length, align 4
  %49 = tail call ptr @proto_tree_add_uint(ptr noundef %15, i32 noundef %48, ptr noundef %0, i32 noundef %42, i32 noundef 4, i32 noundef %47) #21
  %50 = add i32 %42, 4
  %51 = tail call ptr @proto_tree_add_item(ptr noundef %15, i32 noundef %46, ptr noundef %0, i32 noundef %50, i32 noundef %47, i32 noundef 0) #21
  %52 = add i32 %50, %47
  %53 = load i32, ptr @hf_ssh_hostkey_rsa_n, align 4
  %54 = tail call i32 @tvb_get_ntohl(ptr noundef %0, i32 noundef %52) #21
  %55 = load i32, ptr @hf_ssh_mpint_length, align 4
  %56 = tail call ptr @proto_tree_add_uint(ptr noundef %15, i32 noundef %55, ptr noundef %0, i32 noundef %52, i32 noundef 4, i32 noundef %54) #21
  %57 = add i32 %52, 4
  %58 = tail call ptr @proto_tree_add_item(ptr noundef %15, i32 noundef %53, ptr noundef %0, i32 noundef %57, i32 noundef %54, i32 noundef 0) #21
  br label %119

59:                                               ; preds = %ssh_hash_buffer_put_string.exit
  %60 = tail call i32 @strcmp(ptr noundef nonnull dereferenceable(1) %11, ptr noundef nonnull dereferenceable(8) @.str.421) #22
  %61 = icmp eq i32 %60, 0
  br i1 %61, label %62, label %90

62:                                               ; preds = %59
  %63 = load i32, ptr @hf_ssh_hostkey_dsa_p, align 4
  %64 = tail call i32 @tvb_get_ntohl(ptr noundef %0, i32 noundef %42) #21
  %65 = load i32, ptr @hf_ssh_mpint_length, align 4
  %66 = tail call ptr @proto_tree_add_uint(ptr noundef %15, i32 noundef %65, ptr noundef %0, i32 noundef %42, i32 noundef 4, i32 noundef %64) #21
  %67 = add i32 %42, 4
  %68 = tail call ptr @proto_tree_add_item(ptr noundef %15, i32 noundef %63, ptr noundef %0, i32 noundef %67, i32 noundef %64, i32 noundef 0) #21
  %69 = add i32 %67, %64
  %70 = load i32, ptr @hf_ssh_hostkey_dsa_q, align 4
  %71 = tail call i32 @tvb_get_ntohl(ptr noundef %0, i32 noundef %69) #21
  %72 = load i32, ptr @hf_ssh_mpint_length, align 4
  %73 = tail call ptr @proto_tree_add_uint(ptr noundef %15, i32 noundef %72, ptr noundef %0, i32 noundef %69, i32 noundef 4, i32 noundef %71) #21
  %74 = add i32 %69, 4
  %75 = tail call ptr @proto_tree_add_item(ptr noundef %15, i32 noundef %70, ptr noundef %0, i32 noundef %74, i32 noundef %71, i32 noundef 0) #21
  %76 = add i32 %74, %71
  %77 = load i32, ptr @hf_ssh_hostkey_dsa_g, align 4
  %78 = tail call i32 @tvb_get_ntohl(ptr noundef %0, i32 noundef %76) #21
  %79 = load i32, ptr @hf_ssh_mpint_length, align 4
  %80 = tail call ptr @proto_tree_add_uint(ptr noundef %15, i32 noundef %79, ptr noundef %0, i32 noundef %76, i32 noundef 4, i32 noundef %78) #21
  %81 = add i32 %76, 4
  %82 = tail call ptr @proto_tree_add_item(ptr noundef %15, i32 noundef %77, ptr noundef %0, i32 noundef %81, i32 noundef %78, i32 noundef 0) #21
  %83 = add i32 %81, %78
  %84 = load i32, ptr @hf_ssh_hostkey_dsa_y, align 4
  %85 = tail call i32 @tvb_get_ntohl(ptr noundef %0, i32 noundef %83) #21
  %86 = load i32, ptr @hf_ssh_mpint_length, align 4
  %87 = tail call ptr @proto_tree_add_uint(ptr noundef %15, i32 noundef %86, ptr noundef %0, i32 noundef %83, i32 noundef 4, i32 noundef %85) #21
  %88 = add i32 %83, 4
  %89 = tail call ptr @proto_tree_add_item(ptr noundef %15, i32 noundef %84, ptr noundef %0, i32 noundef %88, i32 noundef %85, i32 noundef 0) #21
  br label %119

90:                                               ; preds = %59
  %91 = tail call i32 @g_str_has_prefix(ptr noundef nonnull %11, ptr noundef nonnull @.str.422) #21
  %.not = icmp eq i32 %91, 0
  br i1 %.not, label %106, label %92

92:                                               ; preds = %90
  %93 = load i32, ptr @hf_ssh_hostkey_ecdsa_curve_id, align 4
  %94 = load i32, ptr @hf_ssh_hostkey_ecdsa_curve_id_length, align 4
  %95 = tail call i32 @tvb_get_ntohl(ptr noundef %0, i32 noundef %42) #21
  %96 = tail call ptr @proto_tree_add_uint(ptr noundef %15, i32 noundef %94, ptr noundef %0, i32 noundef %42, i32 noundef 4, i32 noundef %95) #21
  %97 = add i32 %42, 4
  %98 = tail call ptr @proto_tree_add_item(ptr noundef %15, i32 noundef %93, ptr noundef %0, i32 noundef %97, i32 noundef %95, i32 noundef 0) #21
  %99 = add i32 %97, %95
  %100 = load i32, ptr @hf_ssh_hostkey_ecdsa_q, align 4
  %101 = load i32, ptr @hf_ssh_hostkey_ecdsa_q_length, align 4
  %102 = tail call i32 @tvb_get_ntohl(ptr noundef %0, i32 noundef %99) #21
  %103 = tail call ptr @proto_tree_add_uint(ptr noundef %15, i32 noundef %101, ptr noundef %0, i32 noundef %99, i32 noundef 4, i32 noundef %102) #21
  %104 = add i32 %99, 4
  %105 = tail call ptr @proto_tree_add_item(ptr noundef %15, i32 noundef %100, ptr noundef %0, i32 noundef %104, i32 noundef %102, i32 noundef 0) #21
  br label %119

106:                                              ; preds = %90
  %107 = tail call i32 @g_str_has_prefix(ptr noundef nonnull %11, ptr noundef nonnull @.str.423) #21
  %.not82 = icmp eq i32 %107, 0
  br i1 %.not82, label %115, label %108

108:                                              ; preds = %106
  %109 = load i32, ptr @hf_ssh_hostkey_eddsa_key, align 4
  %110 = load i32, ptr @hf_ssh_hostkey_eddsa_key_length, align 4
  %111 = tail call i32 @tvb_get_ntohl(ptr noundef %0, i32 noundef %42) #21
  %112 = tail call ptr @proto_tree_add_uint(ptr noundef %15, i32 noundef %110, ptr noundef %0, i32 noundef %42, i32 noundef 4, i32 noundef %111) #21
  %113 = add i32 %42, 4
  %114 = tail call ptr @proto_tree_add_item(ptr noundef %15, i32 noundef %109, ptr noundef %0, i32 noundef %113, i32 noundef %111, i32 noundef 0) #21
  br label %119

115:                                              ; preds = %106
  %.neg1 = add i32 %6, -4
  %116 = sub i32 %.neg1, %8
  %117 = load i32, ptr @hf_ssh_hostkey_data, align 4
  %118 = tail call ptr @proto_tree_add_item(ptr noundef %15, i32 noundef %117, ptr noundef %0, i32 noundef %42, i32 noundef %116, i32 noundef 0) #21
  br label %119

119:                                              ; preds = %62, %108, %115, %92, %45
  ret i32 %14
}